; Function Attrs: mustprogress uwtable
define hidden void @_ZN6casadi10trim_emptyERKSt6vectorINS_2MXESaIS1_EEb(ptr dead_on_unwind noalias writable sret(%"class.std::vector.15") align 8 %0, ptr nocapture noundef nonnull readonly align 8 dereferenceable(24) %1, i1 noundef zeroext %2) local_unnamed_addr #3 personality ptr @__gxx_personality_v0 {
  tail call void @llvm.memset.p0.i64(ptr noundef nonnull align 8 dereferenceable(24) %0, i8 0, i64 24, i1 false)
  %4 = load ptr, ptr %1, align 8
  %5 = getelementptr inbounds i8, ptr %1, i64 8
  %6 = load ptr, ptr %5, align 8
  %.not14 = icmp eq ptr %4, %6
  br i1 %.not14, label %._crit_edge, label %.lr.ph

.lr.ph:                                           ; preds = %3
  %7 = getelementptr inbounds i8, ptr %0, i64 8
  %8 = getelementptr inbounds i8, ptr %0, i64 16
  br label %9

9:                                                ; preds = %.lr.ph, %_ZNSt6vectorIN6casadi2MXESaIS1_EE9push_backERKS1_.exit
  %.sroa.011.015 = phi ptr [ %4, %.lr.ph ], [ %22, %_ZNSt6vectorIN6casadi2MXESaIS1_EE9push_backERKS1_.exit ]
  %10 = invoke noundef ptr @_ZNK6casadi12SharedObjectptEv(ptr noundef nonnull align 8 dereferenceable(8) %.sroa.011.015)
          to label %.noexc unwind label %20

.noexc:                                           ; preds = %9
  %11 = getelementptr inbounds i8, ptr %10, i64 56
  %12 = invoke noundef zeroext i1 @_ZNK6casadi8Sparsity8is_emptyEb(ptr noundef nonnull align 8 dereferenceable(8) %11, i1 noundef zeroext %2)
          to label %_ZNK6casadi13GenericMatrixINS_2MXEE8is_emptyEb.exit unwind label %20

_ZNK6casadi13GenericMatrixINS_2MXEE8is_emptyEb.exit: ; preds = %.noexc
  br i1 %12, label %_ZNSt6vectorIN6casadi2MXESaIS1_EE9push_backERKS1_.exit, label %13

13:                                               ; preds = %_ZNK6casadi13GenericMatrixINS_2MXEE8is_emptyEb.exit
  %14 = load ptr, ptr %7, align 8
  %15 = load ptr, ptr %8, align 8
  %.not.i = icmp eq ptr %14, %15
  br i1 %.not.i, label %19, label %16

16:                                               ; preds = %13
  invoke void @_ZN6casadi12SharedObjectC2ERKS0_(ptr noundef nonnull align 8 dereferenceable(8) %14, ptr noundef nonnull align 8 dereferenceable(8) %.sroa.011.015)
          to label %.noexc9 unwind label %20

.noexc9:                                          ; preds = %16
  %17 = load ptr, ptr %7, align 8
  %18 = getelementptr inbounds i8, ptr %17, i64 8
  store ptr %18, ptr %7, align 8
  br label %_ZNSt6vectorIN6casadi2MXESaIS1_EE9push_backERKS1_.exit

19:                                               ; preds = %13
  invoke void @_ZNSt6vectorIN6casadi2MXESaIS1_EE17_M_realloc_insertIJRKS1_EEEvN9__gnu_cxx17__normal_iteratorIPS1_S3_EEDpOT_(ptr noundef nonnull align 8 dereferenceable(24) %0, ptr %14, ptr noundef nonnull align 8 dereferenceable(8) %.sroa.011.015)
          to label %_ZNSt6vectorIN6casadi2MXESaIS1_EE9push_backERKS1_.exit unwind label %20

20:                                               ; preds = %19, %16, %.noexc, %9
  %21 = landingpad { ptr, i32 }
          cleanup
  tail call void @_ZNSt6vectorIN6casadi2MXESaIS1_EED2Ev(ptr noundef nonnull align 8 dereferenceable(24) %0) #27
  resume { ptr, i32 } %21

_ZNSt6vectorIN6casadi2MXESaIS1_EE9push_backERKS1_.exit: ; preds = %.noexc9, %19, %_ZNK6casadi13GenericMatrixINS_2MXEE8is_emptyEb.exit
  %22 = getelementptr inbounds i8, ptr %.sroa.011.015, i64 8
  %.not = icmp eq ptr %22, %6
  br i1 %.not, label %._crit_edge, label %9

._crit_edge:                                      ; preds = %_ZNSt6vectorIN6casadi2MXESaIS1_EE9push_backERKS1_.exit, %3
  ret void
}